target datalayout = "e-m:e-p270:32:32-p271:32:32-p272:64:64-i64:64-i128:128-f80:128-n8:16:32:64-S128"
target triple = "x86_64-pc-linux-gnu"

%struct.table_t = type { i64, i64, i64, ptr }
%struct.obj_t = type { %struct.H5O_token_t, ptr, i8, i8 }
%struct.H5O_token_t = type { [16 x i8] }

; Function Attrs: nounwind uwtable
define internal void @add_obj(ptr noundef %0, ptr noundef %1, ptr noundef %2, i1 noundef zeroext %3) #0 {
  %5 = alloca ptr, align 8
  %6 = alloca ptr, align 8
  %7 = alloca ptr, align 8
  %8 = alloca i8, align 1
  %9 = alloca i64, align 8
  store ptr %0, ptr %5, align 8
  store ptr %1, ptr %6, align 8
  store ptr %2, ptr %7, align 8
  %10 = zext i1 %3 to i8
  store i8 %10, ptr %8, align 1
  %11 = load ptr, ptr %5, align 8
  %12 = getelementptr inbounds %struct.table_t, ptr %11, i32 0, i32 2
  %13 = load i64, ptr %12, align 8
  %14 = load ptr, ptr %5, align 8
  %15 = getelementptr inbounds %struct.table_t, ptr %14, i32 0, i32 1
  %16 = load i64, ptr %15, align 8
  %17 = icmp eq i64 %13, %16
  br i1 %17, label %18, label %33

18:                                               ; preds = %4
  %19 = load ptr, ptr %5, align 8
  %20 = getelementptr inbounds %struct.table_t, ptr %19, i32 0, i32 1
  %21 = load i64, ptr %20, align 8
  %22 = mul i64 %21, 2
  store i64 %22, ptr %20, align 8
  %23 = load ptr, ptr %5, align 8
  %24 = getelementptr inbounds %struct.table_t, ptr %23, i32 0, i32 3
  %25 = load ptr, ptr %24, align 8
  %26 = load ptr, ptr %5, align 8
  %27 = getelementptr inbounds %struct.table_t, ptr %26, i32 0, i32 1
  %28 = load i64, ptr %27, align 8
  %29 = mul i64 %28, 32
  %30 = call ptr @realloc(ptr noundef %25, i64 noundef %29) #17
  %31 = load ptr, ptr %5, align 8
  %32 = getelementptr inbounds %struct.table_t, ptr %31, i32 0, i32 3
  store ptr %30, ptr %32, align 8
  br label %33

33:                                               ; preds = %18, %4
  %34 = load ptr, ptr %5, align 8
  %35 = getelementptr inbounds %struct.table_t, ptr %34, i32 0, i32 2
  %36 = load i64, ptr %35, align 8
  %37 = add i64 %36, 1
  store i64 %37, ptr %35, align 8
  store i64 %36, ptr %9, align 8
  %38 = load ptr, ptr %5, align 8
  %39 = getelementptr inbounds %struct.table_t, ptr %38, i32 0, i32 3
  %40 = load ptr, ptr %39, align 8
  %41 = load i64, ptr %9, align 8
  %42 = getelementptr inbounds %struct.obj_t, ptr %40, i64 %41
  %43 = getelementptr inbounds %struct.obj_t, ptr %42, i32 0, i32 0
  %44 = load ptr, ptr %6, align 8
  call void @llvm.memcpy.p0.p0.i64(ptr align 8 %43, ptr align 1 %44, i64 16, i1 false)
  %45 = load ptr, ptr %7, align 8
  %46 = call noalias ptr @strdup(ptr noundef %45) #12
  %47 = load ptr, ptr %5, align 8
  %48 = getelementptr inbounds %struct.table_t, ptr %47, i32 0, i32 3
  %49 = load ptr, ptr %48, align 8
  %50 = load i64, ptr %9, align 8
  %51 = getelementptr inbounds %struct.obj_t, ptr %49, i64 %50
  %52 = getelementptr inbounds %struct.obj_t, ptr %51, i32 0, i32 1
  store ptr %46, ptr %52, align 8
  %53 = load i8, ptr %8, align 1
  %54 = trunc i8 %53 to i1
  %55 = load ptr, ptr %5, align 8
  %56 = getelementptr inbounds %struct.table_t, ptr %55, i32 0, i32 3
  %57 = load ptr, ptr %56, align 8
  %58 = load i64, ptr %9, align 8
  %59 = getelementptr inbounds %struct.obj_t, ptr %57, i64 %58
  %60 = getelementptr inbounds %struct.obj_t, ptr %59, i32 0, i32 3
  %61 = zext i1 %54 to i8
  store i8 %61, ptr %60, align 1
  %62 = load ptr, ptr %5, align 8
  %63 = getelementptr inbounds %struct.table_t, ptr %62, i32 0, i32 3
  %64 = load ptr, ptr %63, align 8
  %65 = load i64, ptr %9, align 8
  %66 = getelementptr inbounds %struct.obj_t, ptr %64, i64 %65
  %67 = getelementptr inbounds %struct.obj_t, ptr %66, i32 0, i32 2
  store i8 0, ptr %67, align 8
  ret void
}