; Function Attrs: mustprogress nounwind willreturn uwtable
define internal fastcc void @add_obj(ptr noundef captures(none) %0, ptr noundef readonly captures(none) %1, ptr noundef readonly captures(none) %2, i1 noundef zeroext %3) unnamed_addr #18 {
  %5 = getelementptr inbounds nuw i8, ptr %0, i64 16
  %6 = load i64, ptr %5, align 8
  %7 = getelementptr inbounds nuw i8, ptr %0, i64 8
  %8 = load i64, ptr %7, align 8
  %9 = icmp eq i64 %6, %8
  br i1 %9, label %10, label %._crit_edge

._crit_edge:                                      ; preds = %4
  %.phi.trans.insert = getelementptr inbounds nuw i8, ptr %0, i64 24
  %.pre17 = load ptr, ptr %.phi.trans.insert, align 8
  br label %16

10:                                               ; preds = %4
  %11 = shl i64 %6, 1
  store i64 %11, ptr %7, align 8
  %12 = getelementptr inbounds nuw i8, ptr %0, i64 24
  %13 = load ptr, ptr %12, align 8
  %14 = shl i64 %6, 6
  %15 = tail call ptr @realloc(ptr noundef %13, i64 noundef %14) #29
  store ptr %15, ptr %12, align 8
  %.pre = load i64, ptr %5, align 8
  br label %16

16:                                               ; preds = %._crit_edge, %10
  %17 = phi ptr [ %15, %10 ], [ %.pre17, %._crit_edge ]
  %18 = phi i64 [ %.pre, %10 ], [ %6, %._crit_edge ]
  %19 = zext i1 %3 to i8
  %20 = add i64 %18, 1
  store i64 %20, ptr %5, align 8
  %21 = getelementptr inbounds nuw i8, ptr %0, i64 24
  %22 = getelementptr inbounds %struct.obj_t, ptr %17, i64 %18
  tail call void @llvm.memcpy.p0.p0.i64(ptr noundef nonnull align 8 dereferenceable(16) %22, ptr noundef nonnull align 1 dereferenceable(16) %1, i64 16, i1 false)
  %23 = tail call noalias ptr @strdup(ptr noundef %2) #23
  %24 = load ptr, ptr %21, align 8
  %25 = getelementptr inbounds %struct.obj_t, ptr %24, i64 %18, i32 1
  store ptr %23, ptr %25, align 8
  %26 = load ptr, ptr %21, align 8
  %27 = getelementptr inbounds %struct.obj_t, ptr %26, i64 %18, i32 3
  store i8 %19, ptr %27, align 1
  %28 = load ptr, ptr %21, align 8
  %29 = getelementptr inbounds %struct.obj_t, ptr %28, i64 %18, i32 2
  store i8 0, ptr %29, align 8
  ret void
}